; Function Attrs: mustprogress uwtable
define noundef i32 @_ZNK7Imf_3_414TiledInputFile10levelWidthEi(ptr noundef nonnull align 8 dereferenceable(32) %0, i32 noundef %1) local_unnamed_addr #3 align 2 personality ptr @__gxx_personality_v0 {
  %3 = alloca i32, align 4
  %4 = alloca %"class.std::__cxx11::basic_stringstream", align 8
  call void @llvm.lifetime.start.p0(i64 4, ptr nonnull %3) #28
  store i32 0, ptr %3, align 4, !tbaa !84
  %5 = load ptr, ptr %0, align 8, !tbaa !77
  %6 = load ptr, ptr %5, align 8, !tbaa !81
  %7 = getelementptr inbounds nuw i8, ptr %0, i64 16
  %8 = load ptr, ptr %7, align 8, !tbaa !6
  %9 = getelementptr inbounds nuw i8, ptr %8, i64 8
  %10 = load i32, ptr %9, align 8, !tbaa !58
  %11 = call i32 @exr_get_level_sizes(ptr noundef %6, i32 noundef %10, i32 noundef %1, i32 noundef 0, ptr noundef nonnull %3, ptr noundef null)
  %.not = icmp eq i32 %11, 0
  br i1 %.not, label %26, label %12

12:                                               ; preds = %2
  call void @_Z13iex_debugTrapv()
  call void @llvm.lifetime.start.p0(i64 392, ptr nonnull %4) #28
  call void @_ZNSt7__cxx1118basic_stringstreamIcSt11char_traitsIcESaIcEEC1Ev(ptr noundef nonnull align 8 dereferenceable(128) %4)
  %13 = getelementptr inbounds nuw i8, ptr %4, i64 16
  %14 = invoke noundef nonnull align 8 dereferenceable(8) ptr @_ZSt16__ostream_insertIcSt11char_traitsIcEERSt13basic_ostreamIT_T0_ES6_PKS3_l(ptr noundef nonnull align 8 dereferenceable(8) %13, ptr noundef nonnull @.str.15, i64 noundef 42)
          to label %_ZStlsISt11char_traitsIcEERSt13basic_ostreamIcT_ES5_PKc.exit unwind label %21

_ZStlsISt11char_traitsIcEERSt13basic_ostreamIcT_ES5_PKc.exit: ; preds = %12
  %15 = invoke noundef ptr @_ZNK7Imf_3_47Context8fileNameEv(ptr noundef nonnull align 8 dereferenceable(32) %0)
          to label %_ZNK7Imf_3_414TiledInputFile8fileNameEv.exit unwind label %21

_ZNK7Imf_3_414TiledInputFile8fileNameEv.exit:     ; preds = %_ZStlsISt11char_traitsIcEERSt13basic_ostreamIcT_ES5_PKc.exit
  %16 = invoke noundef nonnull align 8 dereferenceable(8) ptr @_ZStlsISt11char_traitsIcEERSt13basic_ostreamIcT_ES5_PKc(ptr noundef nonnull align 8 dereferenceable(8) %13, ptr noundef %15)
          to label %17 unwind label %21

17:                                               ; preds = %_ZNK7Imf_3_414TiledInputFile8fileNameEv.exit
  %18 = invoke noundef nonnull align 8 dereferenceable(8) ptr @_ZSt16__ostream_insertIcSt11char_traitsIcEERSt13basic_ostreamIT_T0_ES6_PKS3_l(ptr noundef nonnull align 8 dereferenceable(8) %16, ptr noundef nonnull @.str.16, i64 noundef 2)
          to label %_ZStlsISt11char_traitsIcEERSt13basic_ostreamIcT_ES5_PKc.exit5 unwind label %21

_ZStlsISt11char_traitsIcEERSt13basic_ostreamIcT_ES5_PKc.exit5: ; preds = %17
  %19 = call ptr @__cxa_allocate_exception(i64 72) #28
  invoke void @_ZN7Iex_3_46ArgExcC1ERNSt7__cxx1118basic_stringstreamIcSt11char_traitsIcESaIcEEE(ptr noundef nonnull align 8 dereferenceable(72) %19, ptr noundef nonnull align 8 dereferenceable(128) %4)
          to label %20 unwind label %23

20:                                               ; preds = %_ZStlsISt11char_traitsIcEERSt13basic_ostreamIcT_ES5_PKc.exit5
  invoke void @__cxa_throw(ptr nonnull %19, ptr nonnull @_ZTIN7Iex_3_46ArgExcE, ptr nonnull @_ZN7Iex_3_46ArgExcD1Ev) #30
          to label %28 unwind label %21

21:                                               ; preds = %17, %_ZStlsISt11char_traitsIcEERSt13basic_ostreamIcT_ES5_PKc.exit, %12, %20, %_ZNK7Imf_3_414TiledInputFile8fileNameEv.exit
  %22 = landingpad { ptr, i32 }
          cleanup
  br label %25

23:                                               ; preds = %_ZStlsISt11char_traitsIcEERSt13basic_ostreamIcT_ES5_PKc.exit5
  %24 = landingpad { ptr, i32 }
          cleanup
  call void @__cxa_free_exception(ptr nonnull %19) #28
  br label %25

25:                                               ; preds = %23, %21
  %.pn = phi { ptr, i32 } [ %22, %21 ], [ %24, %23 ]
  call void @_ZNSt7__cxx1118basic_stringstreamIcSt11char_traitsIcESaIcEED1Ev(ptr noundef nonnull align 8 dereferenceable(128) %4) #28
  call void @llvm.lifetime.end.p0(i64 392, ptr nonnull %4) #28
  call void @llvm.lifetime.end.p0(i64 4, ptr nonnull %3) #28
  resume { ptr, i32 } %.pn

26:                                               ; preds = %2
  %27 = load i32, ptr %3, align 4, !tbaa !84
  call void @llvm.lifetime.end.p0(i64 4, ptr nonnull %3) #28
  ret i32 %27

28:                                               ; preds = %20
  unreachable
}